; Function Attrs: mustprogress nofree norecurse nosync nounwind willreturn memory(argmem: readwrite) uwtable
define hidden range(i32 -2, 1) i32 @ma_hpf1_get_heap_size(ptr noundef readonly captures(address_is_null) %0, ptr noundef writeonly captures(address_is_null) %1) local_unnamed_addr #18 {
  %3 = icmp eq ptr %1, null
  %4 = icmp eq ptr %0, null
  %or.cond = or i1 %4, %3
  br i1 %or.cond, label %ma_hpf1_get_heap_layout.exit.thread, label %5

5:                                                ; preds = %2
  %6 = getelementptr inbounds nuw i8, ptr %0, i64 4
  %7 = load i32, ptr %6, align 4
  %8 = icmp eq i32 %7, 0
  br i1 %8, label %ma_hpf1_get_heap_layout.exit.thread, label %9

9:                                                ; preds = %5
  %10 = zext i32 %7 to i64
  %11 = shl nuw nsw i64 %10, 2
  %12 = add nuw nsw i64 %11, 7
  %13 = and i64 %12, 34359738360
  store i64 %13, ptr %1, align 8
  br label %ma_hpf1_get_heap_layout.exit.thread

ma_hpf1_get_heap_layout.exit.thread:              ; preds = %5, %2, %9
  %.0 = phi i32 [ 0, %9 ], [ -2, %2 ], [ -2, %5 ]
  ret i32 %.0
}